target datalayout = "e-m:e-p270:32:32-p271:32:32-p272:64:64-i64:64-i128:128-f80:128-n8:16:32:64-S128"
target triple = "x86_64-pc-linux-gnu"

%"class.icu_77::CollationWeights" = type { i32, [5 x i32], [5 x i32], [7 x %"struct.icu_77::CollationWeights::WeightRange"], i32, i32 }
%"struct.icu_77::CollationWeights::WeightRange" = type { i32, i32, i32, i32 }

; Function Attrs: mustprogress uwtable
define noundef signext i8 @_ZN6icu_7716CollationWeights25allocWeightsInShortRangesEii(ptr noundef nonnull align 4 dereferenceable(164) %0, i32 noundef %1, i32 noundef %2) #2 align 2 {
  %4 = alloca i8, align 1
  %5 = alloca ptr, align 8
  %6 = alloca i32, align 4
  %7 = alloca i32, align 4
  %8 = alloca i32, align 4
  %9 = alloca i32, align 4
  %10 = alloca i32, align 4
  store ptr %0, ptr %5, align 8, !tbaa !3
  store i32 %1, ptr %6, align 4, !tbaa !13
  store i32 %2, ptr %7, align 4, !tbaa !13
  %11 = load ptr, ptr %5, align 8
  call void @llvm.lifetime.start.p0(i64 4, ptr %8) #8
  store i32 0, ptr %8, align 4, !tbaa !13
  br label %12

12:                                               ; preds = %77, %3
  %13 = load i32, ptr %8, align 4, !tbaa !13
  %14 = getelementptr inbounds nuw %"class.icu_77::CollationWeights", ptr %11, i32 0, i32 5
  %15 = load i32, ptr %14, align 4, !tbaa !12
  %16 = icmp slt i32 %13, %15
  br i1 %16, label %17, label %27

17:                                               ; preds = %12
  %18 = getelementptr inbounds nuw %"class.icu_77::CollationWeights", ptr %11, i32 0, i32 3
  %19 = load i32, ptr %8, align 4, !tbaa !13
  %20 = sext i32 %19 to i64
  %21 = getelementptr inbounds [7 x %"struct.icu_77::CollationWeights::WeightRange"], ptr %18, i64 0, i64 %20
  %22 = getelementptr inbounds nuw %"struct.icu_77::CollationWeights::WeightRange", ptr %21, i32 0, i32 2
  %23 = load i32, ptr %22, align 4, !tbaa !21
  %24 = load i32, ptr %7, align 4, !tbaa !13
  %25 = add nsw i32 %24, 1
  %26 = icmp sle i32 %23, %25
  br label %27

27:                                               ; preds = %17, %12
  %28 = phi i1 [ false, %12 ], [ %26, %17 ]
  br i1 %28, label %30, label %29

29:                                               ; preds = %27
  store i32 2, ptr %9, align 4
  br label %80

30:                                               ; preds = %27
  %31 = load i32, ptr %6, align 4, !tbaa !13
  %32 = getelementptr inbounds nuw %"class.icu_77::CollationWeights", ptr %11, i32 0, i32 3
  %33 = load i32, ptr %8, align 4, !tbaa !13
  %34 = sext i32 %33 to i64
  %35 = getelementptr inbounds [7 x %"struct.icu_77::CollationWeights::WeightRange"], ptr %32, i64 0, i64 %34
  %36 = getelementptr inbounds nuw %"struct.icu_77::CollationWeights::WeightRange", ptr %35, i32 0, i32 3
  %37 = load i32, ptr %36, align 4, !tbaa !25
  %38 = icmp sle i32 %31, %37
  br i1 %38, label %39, label %68

39:                                               ; preds = %30
  %40 = getelementptr inbounds nuw %"class.icu_77::CollationWeights", ptr %11, i32 0, i32 3
  %41 = load i32, ptr %8, align 4, !tbaa !13
  %42 = sext i32 %41 to i64
  %43 = getelementptr inbounds [7 x %"struct.icu_77::CollationWeights::WeightRange"], ptr %40, i64 0, i64 %42
  %44 = getelementptr inbounds nuw %"struct.icu_77::CollationWeights::WeightRange", ptr %43, i32 0, i32 2
  %45 = load i32, ptr %44, align 4, !tbaa !21
  %46 = load i32, ptr %7, align 4, !tbaa !13
  %47 = icmp sgt i32 %45, %46
  br i1 %47, label %48, label %55

48:                                               ; preds = %39
  %49 = load i32, ptr %6, align 4, !tbaa !13
  %50 = getelementptr inbounds nuw %"class.icu_77::CollationWeights", ptr %11, i32 0, i32 3
  %51 = load i32, ptr %8, align 4, !tbaa !13
  %52 = sext i32 %51 to i64
  %53 = getelementptr inbounds [7 x %"struct.icu_77::CollationWeights::WeightRange"], ptr %50, i64 0, i64 %52
  %54 = getelementptr inbounds nuw %"struct.icu_77::CollationWeights::WeightRange", ptr %53, i32 0, i32 3
  store i32 %49, ptr %54, align 4, !tbaa !25
  br label %55

55:                                               ; preds = %48, %39
  %56 = load i32, ptr %8, align 4, !tbaa !13
  %57 = add nsw i32 %56, 1
  %58 = getelementptr inbounds nuw %"class.icu_77::CollationWeights", ptr %11, i32 0, i32 5
  store i32 %57, ptr %58, align 4, !tbaa !12
  %59 = getelementptr inbounds nuw %"class.icu_77::CollationWeights", ptr %11, i32 0, i32 5
  %60 = load i32, ptr %59, align 4, !tbaa !12
  %61 = icmp sgt i32 %60, 1
  br i1 %61, label %62, label %67

62:                                               ; preds = %55
  call void @llvm.lifetime.start.p0(i64 4, ptr %10) #8
  store i32 0, ptr %10, align 4, !tbaa !31
  %63 = getelementptr inbounds nuw %"class.icu_77::CollationWeights", ptr %11, i32 0, i32 3
  %64 = getelementptr inbounds [7 x %"struct.icu_77::CollationWeights::WeightRange"], ptr %63, i64 0, i64 0
  %65 = getelementptr inbounds nuw %"class.icu_77::CollationWeights", ptr %11, i32 0, i32 5
  %66 = load i32, ptr %65, align 4, !tbaa !12
  call void @uprv_sortArray_77(ptr noundef %64, i32 noundef %66, i32 noundef 16, ptr noundef @_ZN6icu_77L13compareRangesEPKvS1_S1_, ptr noundef null, i8 noundef signext 0, ptr noundef %10)
  call void @llvm.lifetime.end.p0(i64 4, ptr %10) #8
  br label %67

67:                                               ; preds = %62, %55
  store i8 1, ptr %4, align 1
  store i32 1, ptr %9, align 4
  br label %80

68:                                               ; preds = %30
  %69 = getelementptr inbounds nuw %"class.icu_77::CollationWeights", ptr %11, i32 0, i32 3
  %70 = load i32, ptr %8, align 4, !tbaa !13
  %71 = sext i32 %70 to i64
  %72 = getelementptr inbounds [7 x %"struct.icu_77::CollationWeights::WeightRange"], ptr %69, i64 0, i64 %71
  %73 = getelementptr inbounds nuw %"struct.icu_77::CollationWeights::WeightRange", ptr %72, i32 0, i32 3
  %74 = load i32, ptr %73, align 4, !tbaa !25
  %75 = load i32, ptr %6, align 4, !tbaa !13
  %76 = sub nsw i32 %75, %74
  store i32 %76, ptr %6, align 4, !tbaa !13
  br label %77

77:                                               ; preds = %68
  %78 = load i32, ptr %8, align 4, !tbaa !13
  %79 = add nsw i32 %78, 1
  store i32 %79, ptr %8, align 4, !tbaa !13
  br label %12, !llvm.loop !33

80:                                               ; preds = %67, %29
  call void @llvm.lifetime.end.p0(i64 4, ptr %8) #8
  %81 = load i32, ptr %9, align 4
  switch i32 %81, label %85 [
    i32 2, label %82
    i32 1, label %83
  ]

82:                                               ; preds = %80
  store i8 0, ptr %4, align 1
  br label %83

83:                                               ; preds = %82, %80
  %84 = load i8, ptr %4, align 1
  ret i8 %84

85:                                               ; preds = %80
  unreachable
}