; Function Attrs: mustprogress uwtable
define noundef signext range(i8 0, 2) i8 @_ZN6icu_7716CollationWeights25allocWeightsInShortRangesEii(ptr noundef nonnull align 4 dereferenceable(164) %0, i32 noundef %1, i32 noundef %2) local_unnamed_addr #8 align 2 {
  %4 = alloca i32, align 4
  %5 = getelementptr inbounds nuw i8, ptr %0, i64 160
  %6 = load i32, ptr %5, align 4, !tbaa !8
  %7 = icmp sgt i32 %6, 0
  br i1 %7, label %.lr.ph, label %.critedge

.lr.ph:                                           ; preds = %3
  %8 = getelementptr inbounds nuw i8, ptr %0, i64 44
  %9 = add nsw i32 %2, 1
  %wide.trip.count = zext nneg i32 %6 to i64
  br label %10

10:                                               ; preds = %.lr.ph, %25
  %indvars.iv = phi i64 [ 0, %.lr.ph ], [ %indvars.iv.next, %25 ]
  %.01728 = phi i32 [ %1, %.lr.ph ], [ %26, %25 ]
  %11 = getelementptr inbounds nuw [7 x %"struct.icu_77::CollationWeights::WeightRange"], ptr %8, i64 0, i64 %indvars.iv
  %12 = getelementptr inbounds nuw i8, ptr %11, i64 8
  %13 = load i32, ptr %12, align 4, !tbaa !14
  %.not = icmp sgt i32 %13, %9
  br i1 %.not, label %.critedge, label %14

14:                                               ; preds = %10
  %15 = getelementptr inbounds nuw i8, ptr %11, i64 12
  %16 = load i32, ptr %15, align 4, !tbaa !18
  %.not20 = icmp sgt i32 %.01728, %16
  br i1 %.not20, label %25, label %17

17:                                               ; preds = %14
  %18 = trunc nuw nsw i64 %indvars.iv to i32
  %19 = icmp sgt i32 %13, %2
  br i1 %19, label %20, label %22

20:                                               ; preds = %17
  %21 = getelementptr inbounds nuw i8, ptr %11, i64 12
  store i32 %.01728, ptr %21, align 4, !tbaa !18
  br label %22

22:                                               ; preds = %20, %17
  %23 = add nuw nsw i32 %18, 1
  store i32 %23, ptr %5, align 4, !tbaa !8
  %.not21 = icmp eq i64 %indvars.iv, 0
  br i1 %.not21, label %.critedge, label %24

24:                                               ; preds = %22
  call void @llvm.lifetime.start.p0(i64 4, ptr nonnull %4) #11
  store i32 0, ptr %4, align 4, !tbaa !24
  call void @uprv_sortArray_77(ptr noundef nonnull %8, i32 noundef %23, i32 noundef 16, ptr noundef nonnull @_ZN6icu_77L13compareRangesEPKvS1_S1_, ptr noundef null, i8 noundef signext 0, ptr noundef nonnull %4)
  call void @llvm.lifetime.end.p0(i64 4, ptr nonnull %4) #11
  br label %.critedge

25:                                               ; preds = %14
  %26 = sub nsw i32 %.01728, %16
  %indvars.iv.next = add nuw nsw i64 %indvars.iv, 1
  %exitcond.not = icmp eq i64 %indvars.iv.next, %wide.trip.count
  br i1 %exitcond.not, label %.critedge, label %10, !llvm.loop !26

.critedge:                                        ; preds = %25, %10, %3, %22, %24
  %not.switch = phi i8 [ 1, %24 ], [ 1, %22 ], [ 0, %3 ], [ 0, %10 ], [ 0, %25 ]
  ret i8 %not.switch
}